target datalayout = "e-m:e-p270:32:32-p271:32:32-p272:64:64-i64:64-i128:128-f80:128-n8:16:32:64-S128"
target triple = "x86_64-pc-linux-gnu"

%struct.pmix_value = type { i16, %union.anon }
%union.anon = type { %struct.pmix_envar_t }
%struct.pmix_envar_t = type { ptr, ptr, i8 }
%struct.pmix_info = type { [512 x i8], i32, %struct.pmix_value }

; Function Attrs: inlinehint nounwind uwtable
define internal zeroext i1 @pmix_bfrops_base_tma_info_is_persistent(ptr noundef %0, ptr noundef %1) #1 {
  %3 = alloca ptr, align 8
  %4 = alloca ptr, align 8
  store ptr %0, ptr %3, align 8, !tbaa !54
  store ptr %1, ptr %4, align 8, !tbaa !8
  %5 = load ptr, ptr %3, align 8, !tbaa !54
  %6 = getelementptr inbounds nuw %struct.pmix_info, ptr %5, i32 0, i32 1
  %7 = load i32, ptr %6, align 8, !tbaa !56
  %8 = and i32 %7, 16
  %9 = icmp ne i32 %8, 0
  ret i1 %9
}

; Function Attrs: inlinehint nounwind uwtable
define internal void @pmix_bfrops_base_tma_info_destruct(ptr noundef %0, ptr noundef %1) #1 {
  %3 = alloca ptr, align 8
  %4 = alloca ptr, align 8
  store ptr %0, ptr %3, align 8, !tbaa !54
  store ptr %1, ptr %4, align 8, !tbaa !8
  %5 = load ptr, ptr %3, align 8, !tbaa !54
  %6 = load ptr, ptr %4, align 8, !tbaa !8
  %7 = call zeroext i1 @pmix_bfrops_base_tma_info_is_persistent(ptr noundef %5, ptr noundef %6)
  br i1 %7, label %12, label %8

8:                                                ; preds = %2
  %9 = load ptr, ptr %3, align 8, !tbaa !54
  %10 = getelementptr inbounds nuw %struct.pmix_info, ptr %9, i32 0, i32 2
  %11 = load ptr, ptr %4, align 8, !tbaa !8
  call void @pmix_bfrops_base_tma_value_destruct(ptr noundef %10, ptr noundef %11)
  br label %12

12:                                               ; preds = %8, %2
  ret void
}

; Function Attrs: nounwind uwtable
define void @PMIx_Info_destruct(ptr noundef %0) #0 {
  %2 = alloca ptr, align 8
  store ptr %0, ptr %2, align 8, !tbaa !54
  %3 = load ptr, ptr %2, align 8, !tbaa !54
  call void @pmix_bfrops_base_tma_info_destruct(ptr noundef %3, ptr noundef null)
  ret void
}