; Function Attrs: nounwind uwtable
define void @PMIx_Info_destruct(ptr noundef captures(none) %0) local_unnamed_addr #6 {
  %2 = getelementptr i8, ptr %0, i64 512
  %.val.i = load i32, ptr %2, align 8, !tbaa !80
  %3 = and i32 %.val.i, 16
  %.not.i = icmp eq i32 %3, 0
  br i1 %.not.i, label %4, label %pmix_bfrops_base_tma_info_destruct.exit

4:                                                ; preds = %1
  %5 = getelementptr inbounds nuw i8, ptr %0, i64 520
  tail call fastcc void @pmix_bfrops_base_tma_value_destruct(ptr noundef nonnull %5)
  br label %pmix_bfrops_base_tma_info_destruct.exit

pmix_bfrops_base_tma_info_destruct.exit:          ; preds = %1, %4
  ret void
}